; Function Attrs: nounwind uwtable
define hidden void @nghttp2_frame_altsvc_free(ptr noundef readonly captures(none) %0, ptr noundef %1) local_unnamed_addr #0 {
  %3 = getelementptr inbounds nuw i8, ptr %0, i64 16
  %4 = load ptr, ptr %3, align 8, !tbaa !46
  %5 = icmp eq ptr %4, null
  br i1 %5, label %8, label %6

6:                                                ; preds = %2
  %7 = load ptr, ptr %4, align 8, !tbaa !48
  tail call void @nghttp2_mem_free(ptr noundef %1, ptr noundef %7) #18
  br label %8

8:                                                ; preds = %2, %6
  ret void
}